target datalayout = "e-m:e-p270:32:32-p271:32:32-p272:64:64-i64:64-i128:128-f80:128-n8:16:32:64-S128"
target triple = "x86_64-unknown-linux-gnu"

%"struct.proxygen::HTTPHeaderSize" = type { i32, i32, i32 }
%"class.proxygen::HPACKDecoderBase" = type { i8, i32, i64 }
%"class.proxygen::HPACK::StreamingCallback" = type { ptr, ptr }

; Function Attrs: mustprogress nounwind uwtable
define linkonce_odr void @_ZN8proxygen14HTTPHeaderSizeC2Ev(ptr noundef nonnull align 4 dereferenceable(12) %this) unnamed_addr #5 comdat align 2 {
entry:
  %this.addr = alloca ptr, align 8
  store ptr %this, ptr %this.addr, align 8
  %this1 = load ptr, ptr %this.addr, align 8
  %compressed = getelementptr inbounds %"struct.proxygen::HTTPHeaderSize", ptr %this1, i32 0, i32 0
  store i32 0, ptr %compressed, align 4
  %uncompressed = getelementptr inbounds %"struct.proxygen::HTTPHeaderSize", ptr %this1, i32 0, i32 1
  store i32 0, ptr %uncompressed, align 4
  %compressedBlock = getelementptr inbounds %"struct.proxygen::HTTPHeaderSize", ptr %this1, i32 0, i32 2
  store i32 0, ptr %compressedBlock, align 4
  ret void
}

; Function Attrs: mustprogress uwtable
define void @_ZN8proxygen16HPACKDecoderBase14completeDecodeENS_11HeaderCodec4TypeEPNS_5HPACK17StreamingCallbackEjjjb(ptr noundef nonnull align 8 dereferenceable(16) %this, i8 noundef zeroext %type, ptr noundef %streamingCb, i32 noundef %compressedSize, i32 noundef %compressedBlockSize, i32 noundef %emittedSize, i1 noundef zeroext %acknowledge) #4 align 2 {
entry:
  %this.addr = alloca ptr, align 8
  %type.addr = alloca i8, align 1
  %streamingCb.addr = alloca ptr, align 8
  %compressedSize.addr = alloca i32, align 4
  %compressedBlockSize.addr = alloca i32, align 4
  %emittedSize.addr = alloca i32, align 4
  %acknowledge.addr = alloca i8, align 1
  %decodedSize = alloca %"struct.proxygen::HTTPHeaderSize", align 4
  %agg.tmp = alloca %"struct.proxygen::HTTPHeaderSize", align 4
  %agg.tmp.coerce = alloca { i64, i32 }, align 4
  store ptr %this, ptr %this.addr, align 8
  store i8 %type, ptr %type.addr, align 1
  store ptr %streamingCb, ptr %streamingCb.addr, align 8
  store i32 %compressedSize, ptr %compressedSize.addr, align 4
  store i32 %compressedBlockSize, ptr %compressedBlockSize.addr, align 4
  store i32 %emittedSize, ptr %emittedSize.addr, align 4
  %frombool = zext i1 %acknowledge to i8
  store i8 %frombool, ptr %acknowledge.addr, align 1
  %this1 = load ptr, ptr %this.addr, align 8
  %0 = load ptr, ptr %streamingCb.addr, align 8
  %tobool = icmp ne ptr %0, null
  br i1 %tobool, label %if.end, label %if.then

if.then:                                          ; preds = %entry
  br label %if.end30

if.end:                                           ; preds = %entry
  %err_ = getelementptr inbounds %"class.proxygen::HPACKDecoderBase", ptr %this1, i32 0, i32 0
  %1 = load i8, ptr %err_, align 8
  %cmp = icmp ne i8 %1, 0
  br i1 %cmp, label %if.then2, label %if.else19

if.then2:                                         ; preds = %if.end
  %2 = load ptr, ptr %streamingCb.addr, align 8
  %stats = getelementptr inbounds %"class.proxygen::HPACK::StreamingCallback", ptr %2, i32 0, i32 1
  %3 = load ptr, ptr %stats, align 8
  %tobool3 = icmp ne ptr %3, null
  br i1 %tobool3, label %if.then4, label %if.end15

if.then4:                                         ; preds = %if.then2
  %err_5 = getelementptr inbounds %"class.proxygen::HPACKDecoderBase", ptr %this1, i32 0, i32 0
  %4 = load i8, ptr %err_5, align 8
  %cmp6 = icmp eq i8 %4, 6
  br i1 %cmp6, label %if.then9, label %lor.lhs.false

lor.lhs.false:                                    ; preds = %if.then4
  %err_7 = getelementptr inbounds %"class.proxygen::HPACKDecoderBase", ptr %this1, i32 0, i32 0
  %5 = load i8, ptr %err_7, align 8
  %cmp8 = icmp eq i8 %5, 8
  br i1 %cmp8, label %if.then9, label %if.else

if.then9:                                         ; preds = %lor.lhs.false, %if.then4
  %6 = load ptr, ptr %streamingCb.addr, align 8
  %stats10 = getelementptr inbounds %"class.proxygen::HPACK::StreamingCallback", ptr %6, i32 0, i32 1
  %7 = load ptr, ptr %stats10, align 8
  %8 = load i8, ptr %type.addr, align 1
  %vtable = load ptr, ptr %7, align 8
  %vfn = getelementptr inbounds ptr, ptr %vtable, i64 5
  %9 = load ptr, ptr %vfn, align 8
  call void %9(ptr noundef nonnull align 8 dereferenceable(8) %7, i8 noundef zeroext %8)
  br label %if.end14

if.else:                                          ; preds = %lor.lhs.false
  %10 = load ptr, ptr %streamingCb.addr, align 8
  %stats11 = getelementptr inbounds %"class.proxygen::HPACK::StreamingCallback", ptr %10, i32 0, i32 1
  %11 = load ptr, ptr %stats11, align 8
  %12 = load i8, ptr %type.addr, align 1
  %vtable12 = load ptr, ptr %11, align 8
  %vfn13 = getelementptr inbounds ptr, ptr %vtable12, i64 4
  %13 = load ptr, ptr %vfn13, align 8
  call void %13(ptr noundef nonnull align 8 dereferenceable(8) %11, i8 noundef zeroext %12)
  br label %if.end14

if.end14:                                         ; preds = %if.else, %if.then9
  br label %if.end15

if.end15:                                         ; preds = %if.end14, %if.then2
  %14 = load ptr, ptr %streamingCb.addr, align 8
  %err_16 = getelementptr inbounds %"class.proxygen::HPACKDecoderBase", ptr %this1, i32 0, i32 0
  %15 = load i8, ptr %err_16, align 8
  %vtable17 = load ptr, ptr %14, align 8
  %vfn18 = getelementptr inbounds ptr, ptr %vtable17, i64 4
  %16 = load ptr, ptr %vfn18, align 8
  call void %16(ptr noundef nonnull align 8 dereferenceable(16) %14, i8 noundef zeroext %15)
  br label %if.end30

if.else19:                                        ; preds = %if.end
  call void @_ZN8proxygen14HTTPHeaderSizeC2Ev(ptr noundef nonnull align 4 dereferenceable(12) %decodedSize) #3
  %17 = load i32, ptr %compressedSize.addr, align 4
  %compressed = getelementptr inbounds %"struct.proxygen::HTTPHeaderSize", ptr %decodedSize, i32 0, i32 0
  store i32 %17, ptr %compressed, align 4
  %18 = load i32, ptr %compressedBlockSize.addr, align 4
  %compressedBlock = getelementptr inbounds %"struct.proxygen::HTTPHeaderSize", ptr %decodedSize, i32 0, i32 2
  store i32 %18, ptr %compressedBlock, align 4
  %19 = load i32, ptr %emittedSize.addr, align 4
  %uncompressed = getelementptr inbounds %"struct.proxygen::HTTPHeaderSize", ptr %decodedSize, i32 0, i32 1
  store i32 %19, ptr %uncompressed, align 4
  %20 = load ptr, ptr %streamingCb.addr, align 8
  %stats20 = getelementptr inbounds %"class.proxygen::HPACK::StreamingCallback", ptr %20, i32 0, i32 1
  %21 = load ptr, ptr %stats20, align 8
  %tobool21 = icmp ne ptr %21, null
  br i1 %tobool21, label %if.then22, label %if.end26

if.then22:                                        ; preds = %if.else19
  %22 = load ptr, ptr %streamingCb.addr, align 8
  %stats23 = getelementptr inbounds %"class.proxygen::HPACK::StreamingCallback", ptr %22, i32 0, i32 1
  %23 = load ptr, ptr %stats23, align 8
  %24 = load i8, ptr %type.addr, align 1
  %vtable24 = load ptr, ptr %23, align 8
  %vfn25 = getelementptr inbounds ptr, ptr %vtable24, i64 3
  %25 = load ptr, ptr %vfn25, align 8
  call void %25(ptr noundef nonnull align 8 dereferenceable(8) %23, i8 noundef zeroext %24, ptr noundef nonnull align 4 dereferenceable(12) %decodedSize)
  br label %if.end26

if.end26:                                         ; preds = %if.then22, %if.else19
  %26 = load ptr, ptr %streamingCb.addr, align 8
  call void @llvm.memcpy.p0.p0.i64(ptr align 4 %agg.tmp, ptr align 4 %decodedSize, i64 12, i1 false)
  %27 = load i8, ptr %acknowledge.addr, align 1
  %tobool27 = trunc i8 %27 to i1
  call void @llvm.memcpy.p0.p0.i64(ptr align 4 %agg.tmp.coerce, ptr align 4 %agg.tmp, i64 12, i1 false)
  %28 = getelementptr inbounds { i64, i32 }, ptr %agg.tmp.coerce, i32 0, i32 0
  %29 = load i64, ptr %28, align 4
  %30 = getelementptr inbounds { i64, i32 }, ptr %agg.tmp.coerce, i32 0, i32 1
  %31 = load i32, ptr %30, align 4
  %vtable28 = load ptr, ptr %26, align 8
  %vfn29 = getelementptr inbounds ptr, ptr %vtable28, i64 3
  %32 = load ptr, ptr %vfn29, align 8
  call void %32(ptr noundef nonnull align 8 dereferenceable(16) %26, i64 %29, i32 %31, i1 noundef zeroext %tobool27)
  br label %if.end30

if.end30:                                         ; preds = %if.end26, %if.end15, %if.then
  ret void
}