; Function Attrs: mustprogress uwtable
define void @_ZN8proxygen16HPACKDecoderBase14completeDecodeENS_11HeaderCodec4TypeEPNS_5HPACK17StreamingCallbackEjjjb(ptr nocapture noundef nonnull readonly align 8 dereferenceable(16) %this, i8 noundef zeroext %type, ptr noundef %streamingCb, i32 noundef %compressedSize, i32 noundef %compressedBlockSize, i32 noundef %emittedSize, i1 noundef zeroext %acknowledge) local_unnamed_addr #3 align 2 {
entry:
  %decodedSize = alloca %"struct.proxygen::HTTPHeaderSize", align 8
  %tobool.not = icmp eq ptr %streamingCb, null
  br i1 %tobool.not, label %if.end30, label %if.end

if.end:                                           ; preds = %entry
  %0 = load i8, ptr %this, align 8
  %cmp.not = icmp eq i8 %0, 0
  br i1 %cmp.not, label %if.else19, label %if.then2

if.then2:                                         ; preds = %if.end
  %stats = getelementptr inbounds i8, ptr %streamingCb, i64 8
  %1 = load ptr, ptr %stats, align 8
  %tobool3.not = icmp eq ptr %1, null
  br i1 %tobool3.not, label %if.end15, label %if.then4

if.then4:                                         ; preds = %if.then2
  %2 = add i8 %0, -6
  %switch.and = and i8 %2, -3
  %switch.selectcmp = icmp eq i8 %switch.and, 0
  %3 = select i1 %switch.selectcmp, i64 40, i64 32
  %vtable = load ptr, ptr %1, align 8
  %vfn = getelementptr inbounds i8, ptr %vtable, i64 %3
  %4 = load ptr, ptr %vfn, align 8
  tail call void %4(ptr noundef nonnull align 8 dereferenceable(8) %1, i8 noundef zeroext %type)
  br label %if.end15

if.end15:                                         ; preds = %if.then4, %if.then2
  %5 = load i8, ptr %this, align 8
  %vtable17 = load ptr, ptr %streamingCb, align 8
  %vfn18 = getelementptr inbounds i8, ptr %vtable17, i64 32
  %6 = load ptr, ptr %vfn18, align 8
  tail call void %6(ptr noundef nonnull align 8 dereferenceable(16) %streamingCb, i8 noundef zeroext %5)
  br label %if.end30

if.else19:                                        ; preds = %if.end
  %uncompressed.i = getelementptr inbounds i8, ptr %decodedSize, i64 4
  %compressedBlock.i = getelementptr inbounds i8, ptr %decodedSize, i64 8
  store i32 %compressedSize, ptr %decodedSize, align 8
  store i32 %compressedBlockSize, ptr %compressedBlock.i, align 8
  store i32 %emittedSize, ptr %uncompressed.i, align 4
  %stats20 = getelementptr inbounds i8, ptr %streamingCb, i64 8
  %7 = load ptr, ptr %stats20, align 8
  %tobool21.not = icmp eq ptr %7, null
  br i1 %tobool21.not, label %if.end26, label %if.then22

if.then22:                                        ; preds = %if.else19
  %vtable24 = load ptr, ptr %7, align 8
  %vfn25 = getelementptr inbounds i8, ptr %vtable24, i64 24
  %8 = load ptr, ptr %vfn25, align 8
  call void %8(ptr noundef nonnull align 8 dereferenceable(8) %7, i8 noundef zeroext %type, ptr noundef nonnull align 4 dereferenceable(12) %decodedSize)
  %agg.tmp.sroa.2.0.copyload.pre = load i32, ptr %compressedBlock.i, align 8
  br label %if.end26

if.end26:                                         ; preds = %if.then22, %if.else19
  %agg.tmp.sroa.2.0.copyload = phi i32 [ %agg.tmp.sroa.2.0.copyload.pre, %if.then22 ], [ %compressedBlockSize, %if.else19 ]
  %agg.tmp.sroa.0.0.copyload = load i64, ptr %decodedSize, align 8
  %vtable28 = load ptr, ptr %streamingCb, align 8
  %vfn29 = getelementptr inbounds i8, ptr %vtable28, i64 24
  %9 = load ptr, ptr %vfn29, align 8
  call void %9(ptr noundef nonnull align 8 dereferenceable(16) %streamingCb, i64 %agg.tmp.sroa.0.0.copyload, i32 %agg.tmp.sroa.2.0.copyload, i1 noundef zeroext %acknowledge)
  br label %if.end30

if.end30:                                         ; preds = %entry, %if.end26, %if.end15
  ret void
}